; ModuleID = '15/448.c'
source_filename = "15/448.c"
target datalayout = "e-m:e-p270:32:32-p271:32:32-p272:64:64-i64:64-f80:128-n8:16:32:64-S128"
target triple = "x86_64-pc-linux-gnu"

@.str = private unnamed_addr constant [3 x i8] c"%d\00", align 1

; Function Attrs: noinline nounwind uwtable
define dso_local i32 @main(i32 %0, i8** %1) #0 {
  %3 = alloca i32, align 4
  %4 = alloca i32, align 4
  %5 = alloca i8**, align 8
  %6 = alloca i32, align 4
  %7 = alloca [100 x [100 x i32]], align 16
  %8 = alloca i32, align 4
  %9 = alloca i32, align 4
  %10 = alloca i32, align 4
  %11 = alloca i32, align 4
  %12 = alloca i32, align 4
  %13 = alloca i32, align 4
  %14 = alloca i32, align 4
  %15 = alloca i32, align 4
  %16 = alloca i32, align 4
  %17 = alloca i32, align 4
  %18 = alloca i32, align 4
  %19 = alloca i32, align 4
  store i32 0, i32* %3, align 4
  store i32 %0, i32* %4, align 4
  store i8** %1, i8*** %5, align 8
  %20 = call i32 (i8*, ...) @__isoc99_scanf(i8* getelementptr inbounds ([3 x i8], [3 x i8]* @.str, i64 0, i64 0), i32* %6)
  store i32 0, i32* %8, align 4
  br label %21

21:                                               ; preds = %42, %2
  %22 = load i32, i32* %8, align 4
  %23 = load i32, i32* %6, align 4
  %24 = icmp slt i32 %22, %23
  br i1 %24, label %25, label %45

25:                                               ; preds = %21
  store i32 0, i32* %9, align 4
  br label %26

26:                                               ; preds = %38, %25
  %27 = load i32, i32* %9, align 4
  %28 = load i32, i32* %6, align 4
  %29 = icmp slt i32 %27, %28
  br i1 %29, label %30, label %41

30:                                               ; preds = %26
  %31 = load i32, i32* %8, align 4
  %32 = sext i32 %31 to i64
  %33 = getelementptr inbounds [100 x [100 x i32]], [100 x [100 x i32]]* %7, i64 0, i64 %32
  %34 = load i32, i32* %9, align 4
  %35 = sext i32 %34 to i64
  %36 = getelementptr inbounds [100 x i32], [100 x i32]* %33, i64 0, i64 %35
  %37 = call i32 (i8*, ...) @__isoc99_scanf(i8* getelementptr inbounds ([3 x i8], [3 x i8]* @.str, i64 0, i64 0), i32* %36)
  br label %38

38:                                               ; preds = %30
  %39 = load i32, i32* %9, align 4
  %40 = add nsw i32 %39, 1
  store i32 %40, i32* %9, align 4
  br label %26

41:                                               ; preds = %26
  br label %42

42:                                               ; preds = %41
  %43 = load i32, i32* %8, align 4
  %44 = add nsw i32 %43, 1
  store i32 %44, i32* %8, align 4
  br label %21

45:                                               ; preds = %21
  store i32 0, i32* %14, align 4
  store i32 0, i32* %12, align 4
  br label %46

46:                                               ; preds = %76, %45
  %47 = load i32, i32* %12, align 4
  %48 = load i32, i32* %6, align 4
  %49 = icmp slt i32 %47, %48
  br i1 %49, label %50, label %79

50:                                               ; preds = %46
  store i32 0, i32* %13, align 4
  br label %51

51:                                               ; preds = %68, %50
  %52 = load i32, i32* %13, align 4
  %53 = load i32, i32* %6, align 4
  %54 = icmp slt i32 %52, %53
  br i1 %54, label %55, label %71

55:                                               ; preds = %51
  %56 = load i32, i32* %12, align 4
  %57 = sext i32 %56 to i64
  %58 = getelementptr inbounds [100 x [100 x i32]], [100 x [100 x i32]]* %7, i64 0, i64 %57
  %59 = load i32, i32* %13, align 4
  %60 = sext i32 %59 to i64
  %61 = getelementptr inbounds [100 x i32], [100 x i32]* %58, i64 0, i64 %60
  %62 = load i32, i32* %61, align 4
  %63 = icmp eq i32 %62, 0
  br i1 %63, label %64, label %67

64:                                               ; preds = %55
  %65 = load i32, i32* %12, align 4
  store i32 %65, i32* %10, align 4
  %66 = load i32, i32* %13, align 4
  store i32 %66, i32* %11, align 4
  store i32 1, i32* %14, align 4
  br label %71

67:                                               ; preds = %55
  br label %68

68:                                               ; preds = %67
  %69 = load i32, i32* %13, align 4
  %70 = add nsw i32 %69, 1
  store i32 %70, i32* %13, align 4
  br label %51

71:                                               ; preds = %64, %51
  %72 = load i32, i32* %14, align 4
  %73 = icmp eq i32 %72, 1
  br i1 %73, label %74, label %75

74:                                               ; preds = %71
  br label %79

75:                                               ; preds = %71
  br label %76

76:                                               ; preds = %75
  %77 = load i32, i32* %12, align 4
  %78 = add nsw i32 %77, 1
  store i32 %78, i32* %12, align 4
  br label %46

79:                                               ; preds = %74, %46
  store i32 0, i32* %17, align 4
  br label %80

80:                                               ; preds = %106, %79
  %81 = load i32, i32* %17, align 4
  %82 = load i32, i32* %6, align 4
  %83 = icmp slt i32 %81, %82
  br i1 %83, label %84, label %109

84:                                               ; preds = %80
  store i32 0, i32* %18, align 4
  br label %85

85:                                               ; preds = %102, %84
  %86 = load i32, i32* %18, align 4
  %87 = load i32, i32* %6, align 4
  %88 = icmp slt i32 %86, %87
  br i1 %88, label %89, label %105

89:                                               ; preds = %85
  %90 = load i32, i32* %17, align 4
  %91 = sext i32 %90 to i64
  %92 = getelementptr inbounds [100 x [100 x i32]], [100 x [100 x i32]]* %7, i64 0, i64 %91
  %93 = load i32, i32* %18, align 4
  %94 = sext i32 %93 to i64
  %95 = getelementptr inbounds [100 x i32], [100 x i32]* %92, i64 0, i64 %94
  %96 = load i32, i32* %95, align 4
  %97 = icmp eq i32 %96, 0
  br i1 %97, label %98, label %101

98:                                               ; preds = %89
  %99 = load i32, i32* %17, align 4
  store i32 %99, i32* %15, align 4
  %100 = load i32, i32* %18, align 4
  store i32 %100, i32* %16, align 4
  br label %101

101:                                              ; preds = %98, %89
  br label %102

102:                                              ; preds = %101
  %103 = load i32, i32* %18, align 4
  %104 = add nsw i32 %103, 1
  store i32 %104, i32* %18, align 4
  br label %85

105:                                              ; preds = %85
  br label %106

106:                                              ; preds = %105
  %107 = load i32, i32* %17, align 4
  %108 = add nsw i32 %107, 1
  store i32 %108, i32* %17, align 4
  br label %80

109:                                              ; preds = %80
  %110 = load i32, i32* %15, align 4
  %111 = load i32, i32* %10, align 4
  %112 = sub nsw i32 %110, %111
  %113 = sub nsw i32 %112, 1
  %114 = load i32, i32* %16, align 4
  %115 = load i32, i32* %11, align 4
  %116 = sub nsw i32 %114, %115
  %117 = sub nsw i32 %116, 1
  %118 = mul nsw i32 %113, %117
  store i32 %118, i32* %19, align 4
  %119 = load i32, i32* %19, align 4
  %120 = call i32 (i8*, ...) @printf(i8* getelementptr inbounds ([3 x i8], [3 x i8]* @.str, i64 0, i64 0), i32 %119)
  ret i32 0
}

declare dso_local i32 @__isoc99_scanf(i8*, ...) #1

declare dso_local i32 @printf(i8*, ...) #1


!llvm.module.flags = !{!0}
!llvm.ident = !{!1}

!0 = !{i32 1, !"wchar_size", i32 4}
!1 = !{!"clang version 10.0.0-4ubuntu1 "}
